; Function Attrs: nounwind uwtable
define hidden void @dom_parent_node_replace_children(ptr noundef %0, ptr noundef %1, i32 noundef %2) local_unnamed_addr #0 {
  %4 = tail call ptr @dom_object_get_node(ptr noundef %0) #3
  %5 = getelementptr inbounds i8, ptr %0, i64 8
  %6 = load ptr, ptr %5, align 8
  %7 = tail call fastcc i32 @dom_sanity_check_node_list_for_insertion(ptr noundef %6, ptr noundef %4, ptr noundef %1, i32 noundef %2), !range !4
  %.not = icmp eq i32 %7, 0
  br i1 %.not, label %8, label %42

8:                                                ; preds = %3
  %9 = load ptr, ptr %5, align 8
  %10 = tail call ptr @dom_zvals_to_fragment(ptr noundef %9, ptr noundef %4, ptr noundef %1, i32 noundef %2)
  %11 = icmp eq ptr %10, null
  br i1 %11, label %42, label %12

12:                                               ; preds = %8
  %13 = load ptr, ptr %5, align 8
  %.not27 = icmp eq ptr %13, null
  br i1 %.not27, label %18, label %14

14:                                               ; preds = %12
  %15 = getelementptr inbounds i8, ptr %13, i64 16
  %16 = load i64, ptr %15, align 8
  %17 = add i64 %16, 1
  store i64 %17, ptr %15, align 8
  br label %18

18:                                               ; preds = %12, %14
  tail call void @dom_remove_all_children(ptr noundef %4) #3
  %19 = getelementptr inbounds i8, ptr %10, i64 24
  %20 = load ptr, ptr %19, align 8
  %.not28 = icmp eq ptr %20, null
  br i1 %.not28, label %40, label %21

21:                                               ; preds = %18
  %22 = getelementptr inbounds i8, ptr %10, i64 32
  %23 = load ptr, ptr %22, align 8
  %24 = getelementptr inbounds i8, ptr %4, i64 24
  %25 = load ptr, ptr %24, align 8
  %.not24.i = icmp eq ptr %25, null
  br i1 %.not24.i, label %dom_pre_insert.exit, label %26

26:                                               ; preds = %21
  %27 = getelementptr inbounds i8, ptr %4, i64 32
  %28 = load ptr, ptr %27, align 8
  %29 = getelementptr inbounds i8, ptr %20, i64 56
  store ptr %28, ptr %29, align 8
  %30 = getelementptr inbounds i8, ptr %28, i64 48
  br label %dom_pre_insert.exit

dom_pre_insert.exit:                              ; preds = %21, %26
  %.sink.i = phi ptr [ %30, %26 ], [ %24, %21 ]
  store ptr %20, ptr %.sink.i, align 8
  %31 = load ptr, ptr %22, align 8
  %32 = getelementptr inbounds i8, ptr %4, i64 32
  store ptr %31, ptr %32, align 8
  %.09.i = load ptr, ptr %19, align 8
  %.not10.i = icmp eq ptr %.09.i, null
  br i1 %.not10.i, label %dom_fragment_assign_parent_node.exit, label %.lr.ph.i

33:                                               ; preds = %.lr.ph.i
  %34 = getelementptr inbounds i8, ptr %.011.i, i64 48
  %.0.i = load ptr, ptr %34, align 8
  %.not.i = icmp eq ptr %.0.i, null
  br i1 %.not.i, label %dom_fragment_assign_parent_node.exit, label %.lr.ph.i

.lr.ph.i:                                         ; preds = %dom_pre_insert.exit, %33
  %.011.i = phi ptr [ %.0.i, %33 ], [ %.09.i, %dom_pre_insert.exit ]
  %35 = getelementptr inbounds i8, ptr %.011.i, i64 40
  store ptr %4, ptr %35, align 8
  %36 = load ptr, ptr %22, align 8
  %37 = icmp eq ptr %.011.i, %36
  br i1 %37, label %dom_fragment_assign_parent_node.exit, label %33

dom_fragment_assign_parent_node.exit:             ; preds = %33, %.lr.ph.i, %dom_pre_insert.exit
  tail call void @llvm.memset.p0.i64(ptr noundef nonnull align 8 dereferenceable(16) %19, i8 0, i64 16, i1 false)
  %38 = getelementptr inbounds i8, ptr %4, i64 64
  %39 = load ptr, ptr %38, align 8
  tail call void @dom_reconcile_ns_list(ptr noundef %39, ptr noundef nonnull %20, ptr noundef %23) #3
  br label %40

40:                                               ; preds = %dom_fragment_assign_parent_node.exit, %18
  %41 = load ptr, ptr @xmlFree, align 8
  tail call void %41(ptr noundef nonnull %10) #3
  br label %42

42:                                               ; preds = %8, %3, %40
  ret void
}